; Function Attrs: mustprogress nofree nounwind willreturn memory(read, inaccessiblemem: none) uwtable
define noundef zeroext i1 @_ZNK6icu_7511MeasureUniteqERKNS_7UObjectE(ptr noundef nonnull readonly align 8 dereferenceable(19) %this, ptr noundef nonnull readonly align 8 dereferenceable(8) %other) unnamed_addr #12 align 2 {
entry:
  %cmp = icmp eq ptr %this, %other
  br i1 %cmp, label %return, label %typeid.end

typeid.end:                                       ; preds = %entry
  %vtable = load ptr, ptr %this, align 8
  %0 = getelementptr inbounds i8, ptr %vtable, i64 -8
  %1 = load ptr, ptr %0, align 8
  %vtable2 = load ptr, ptr %other, align 8
  %2 = getelementptr inbounds i8, ptr %vtable2, i64 -8
  %3 = load ptr, ptr %2, align 8
  %__name.i.i = getelementptr inbounds i8, ptr %1, i64 8
  %4 = load ptr, ptr %__name.i.i, align 8
  %__name2.i.i = getelementptr inbounds i8, ptr %3, i64 8
  %5 = load ptr, ptr %__name2.i.i, align 8
  %cmp.i.i = icmp eq ptr %4, %5
  br i1 %cmp.i.i, label %if.end4, label %if.end.i.i

if.end.i.i:                                       ; preds = %typeid.end
  %6 = load i8, ptr %4, align 1
  %cmp4.not.i.i = icmp eq i8 %6, 42
  br i1 %cmp4.not.i.i, label %return, label %_ZNKSt9type_infoneERKS_.exit

_ZNKSt9type_infoneERKS_.exit:                     ; preds = %if.end.i.i
  %7 = load i8, ptr %5, align 1
  %cmp.i.i.i = icmp eq i8 %7, 42
  %cond.idx.i.i.i = zext i1 %cmp.i.i.i to i64
  %cond.i.i.i = getelementptr inbounds i8, ptr %5, i64 %cond.idx.i.i.i
  %call6.i.i = tail call i32 @strcmp(ptr noundef nonnull dereferenceable(1) %4, ptr noundef nonnull dereferenceable(1) %cond.i.i.i) #17
  %cmp7.i.i.not = icmp eq i32 %call6.i.i, 0
  br i1 %cmp7.i.i.not, label %if.end4, label %return

if.end4:                                          ; preds = %typeid.end, %_ZNKSt9type_infoneERKS_.exit
  %fImpl.i = getelementptr inbounds i8, ptr %this, i64 8
  %8 = load ptr, ptr %fImpl.i, align 8
  %tobool.not.i = icmp eq ptr %8, null
  br i1 %tobool.not.i, label %cond.false.i, label %cond.true.i

cond.true.i:                                      ; preds = %if.end4
  %identifier.i = getelementptr inbounds i8, ptr %8, i64 96
  br label %_ZNK6icu_7511MeasureUnit13getIdentifierEv.exit

cond.false.i:                                     ; preds = %if.end4
  %fTypeId.i.i = getelementptr inbounds i8, ptr %this, i64 18
  %9 = load i8, ptr %fTypeId.i.i, align 2
  %cmp.i.i3 = icmp slt i8 %9, 0
  br i1 %cmp.i.i3, label %_ZNK6icu_7511MeasureUnit9getOffsetEv.exit.i, label %lor.lhs.false.i.i

lor.lhs.false.i.i:                                ; preds = %cond.false.i
  %fSubTypeId.i.i = getelementptr inbounds i8, ptr %this, i64 16
  %10 = load i16, ptr %fSubTypeId.i.i, align 8
  %cmp3.i.i = icmp slt i16 %10, 0
  br i1 %cmp3.i.i, label %_ZNK6icu_7511MeasureUnit9getOffsetEv.exit.i, label %if.end.i.i4

if.end.i.i4:                                      ; preds = %lor.lhs.false.i.i
  %conv2.i.i = zext nneg i16 %10 to i32
  %idxprom.i.i = zext nneg i8 %9 to i64
  %arrayidx.i.i = getelementptr inbounds [24 x i32], ptr @_ZN6icu_75L8gOffsetsE, i64 0, i64 %idxprom.i.i
  %11 = load i32, ptr %arrayidx.i.i, align 4
  %add.i.i = add nsw i32 %11, %conv2.i.i
  %12 = sext i32 %add.i.i to i64
  br label %_ZNK6icu_7511MeasureUnit9getOffsetEv.exit.i

_ZNK6icu_7511MeasureUnit9getOffsetEv.exit.i:      ; preds = %if.end.i.i4, %lor.lhs.false.i.i, %cond.false.i
  %retval.0.i.i5 = phi i64 [ %12, %if.end.i.i4 ], [ -1, %lor.lhs.false.i.i ], [ -1, %cond.false.i ]
  %arrayidx.i = getelementptr inbounds [492 x ptr], ptr @_ZN6icu_75L9gSubTypesE, i64 0, i64 %retval.0.i.i5
  br label %_ZNK6icu_7511MeasureUnit13getIdentifierEv.exit

_ZNK6icu_7511MeasureUnit13getIdentifierEv.exit:   ; preds = %cond.true.i, %_ZNK6icu_7511MeasureUnit9getOffsetEv.exit.i
  %cond.in.i = phi ptr [ %identifier.i, %cond.true.i ], [ %arrayidx.i, %_ZNK6icu_7511MeasureUnit9getOffsetEv.exit.i ]
  %cond.i = load ptr, ptr %cond.in.i, align 8
  %fImpl.i6 = getelementptr inbounds i8, ptr %other, i64 8
  %13 = load ptr, ptr %fImpl.i6, align 8
  %tobool.not.i7 = icmp eq ptr %13, null
  br i1 %tobool.not.i7, label %cond.false.i12, label %cond.true.i8

cond.true.i8:                                     ; preds = %_ZNK6icu_7511MeasureUnit13getIdentifierEv.exit
  %identifier.i9 = getelementptr inbounds i8, ptr %13, i64 96
  br label %_ZNK6icu_7511MeasureUnit13getIdentifierEv.exit26

cond.false.i12:                                   ; preds = %_ZNK6icu_7511MeasureUnit13getIdentifierEv.exit
  %fTypeId.i.i13 = getelementptr inbounds i8, ptr %other, i64 18
  %14 = load i8, ptr %fTypeId.i.i13, align 2
  %cmp.i.i14 = icmp slt i8 %14, 0
  br i1 %cmp.i.i14, label %_ZNK6icu_7511MeasureUnit9getOffsetEv.exit.i23, label %lor.lhs.false.i.i15

lor.lhs.false.i.i15:                              ; preds = %cond.false.i12
  %fSubTypeId.i.i16 = getelementptr inbounds i8, ptr %other, i64 16
  %15 = load i16, ptr %fSubTypeId.i.i16, align 8
  %cmp3.i.i17 = icmp slt i16 %15, 0
  br i1 %cmp3.i.i17, label %_ZNK6icu_7511MeasureUnit9getOffsetEv.exit.i23, label %if.end.i.i18

if.end.i.i18:                                     ; preds = %lor.lhs.false.i.i15
  %conv2.i.i19 = zext nneg i16 %15 to i32
  %idxprom.i.i20 = zext nneg i8 %14 to i64
  %arrayidx.i.i21 = getelementptr inbounds [24 x i32], ptr @_ZN6icu_75L8gOffsetsE, i64 0, i64 %idxprom.i.i20
  %16 = load i32, ptr %arrayidx.i.i21, align 4
  %add.i.i22 = add nsw i32 %16, %conv2.i.i19
  %17 = sext i32 %add.i.i22 to i64
  br label %_ZNK6icu_7511MeasureUnit9getOffsetEv.exit.i23

_ZNK6icu_7511MeasureUnit9getOffsetEv.exit.i23:    ; preds = %if.end.i.i18, %lor.lhs.false.i.i15, %cond.false.i12
  %retval.0.i.i24 = phi i64 [ %17, %if.end.i.i18 ], [ -1, %lor.lhs.false.i.i15 ], [ -1, %cond.false.i12 ]
  %arrayidx.i25 = getelementptr inbounds [492 x ptr], ptr @_ZN6icu_75L9gSubTypesE, i64 0, i64 %retval.0.i.i24
  br label %_ZNK6icu_7511MeasureUnit13getIdentifierEv.exit26

_ZNK6icu_7511MeasureUnit13getIdentifierEv.exit26: ; preds = %cond.true.i8, %_ZNK6icu_7511MeasureUnit9getOffsetEv.exit.i23
  %cond.in.i10 = phi ptr [ %identifier.i9, %cond.true.i8 ], [ %arrayidx.i25, %_ZNK6icu_7511MeasureUnit9getOffsetEv.exit.i23 ]
  %cond.i11 = load ptr, ptr %cond.in.i10, align 8
  %call7 = tail call i32 @strcmp(ptr noundef nonnull dereferenceable(1) %cond.i, ptr noundef nonnull dereferenceable(1) %cond.i11) #20
  %cmp8 = icmp eq i32 %call7, 0
  br label %return

return:                                           ; preds = %if.end.i.i, %_ZNKSt9type_infoneERKS_.exit, %entry, %_ZNK6icu_7511MeasureUnit13getIdentifierEv.exit26
  %retval.0 = phi i1 [ %cmp8, %_ZNK6icu_7511MeasureUnit13getIdentifierEv.exit26 ], [ true, %entry ], [ false, %_ZNKSt9type_infoneERKS_.exit ], [ false, %if.end.i.i ]
  ret i1 %retval.0
}